target datalayout = "e-m:e-p270:32:32-p271:32:32-p272:64:64-i64:64-i128:128-f80:128-n8:16:32:64-S128"
target triple = "x86_64-pc-linux-gnu"

@hf_h264_cpb_cnt_minus1 = internal global i32 0, align 4
@hf_h264_bit_rate_scale = internal global i32 0, align 4
@hf_h264_cpb_size_scale = internal global i32 0, align 4
@hf_h264_bit_rate_value_minus1 = internal global i32 0, align 4
@hf_h264_cpb_size_value_minus1 = internal global i32 0, align 4
@hf_h264_cbr_flag = internal global i32 0, align 4
@hf_h264_initial_cpb_removal_delay_length_minus1 = internal global i32 0, align 4
@hf_h264_cpb_removal_delay_length_minus1 = internal global i32 0, align 4
@hf_h264_dpb_output_delay_length_minus11 = internal global i32 0, align 4
@hf_h264_time_offset_length = internal global i32 0, align 4

; Function Attrs: null_pointer_is_valid sspstrong uwtable
define internal i32 @dissect_h264_hrd_parameters(ptr noundef %0, ptr noundef %1, ptr noundef %2, i32 noundef %3) #0 {
  %5 = alloca ptr, align 8
  %6 = alloca ptr, align 8
  %7 = alloca ptr, align 8
  %8 = alloca i32, align 4
  %9 = alloca i8, align 1
  %10 = alloca i32, align 4
  store ptr %0, ptr %5, align 8
  store ptr %1, ptr %6, align 8
  store ptr %2, ptr %7, align 8
  store i32 %3, ptr %8, align 4
  call void @llvm.lifetime.start.p0(i64 1, ptr %9) #7
  call void @llvm.lifetime.start.p0(i64 4, ptr %10) #7
  %11 = load ptr, ptr %5, align 8
  %12 = load ptr, ptr %7, align 8
  %13 = load i32, ptr @hf_h264_cpb_cnt_minus1, align 4
  %14 = load ptr, ptr %6, align 8
  %15 = call i32 @dissect_h264_exp_golomb_code(ptr noundef %11, ptr noundef %12, i32 noundef %13, ptr noundef %14, ptr noundef %8, i32 noundef 0)
  %16 = trunc i32 %15 to i8
  store i8 %16, ptr %9, align 1
  %17 = load ptr, ptr %5, align 8
  %18 = load i32, ptr @hf_h264_bit_rate_scale, align 4
  %19 = load ptr, ptr %6, align 8
  %20 = load i32, ptr %8, align 4
  %21 = call ptr @proto_tree_add_bits_item(ptr noundef %17, i32 noundef %18, ptr noundef %19, i32 noundef %20, i32 noundef 4, i32 noundef 0)
  %22 = load i32, ptr %8, align 4
  %23 = add i32 %22, 4
  store i32 %23, ptr %8, align 4
  %24 = load ptr, ptr %5, align 8
  %25 = load i32, ptr @hf_h264_cpb_size_scale, align 4
  %26 = load ptr, ptr %6, align 8
  %27 = load i32, ptr %8, align 4
  %28 = call ptr @proto_tree_add_bits_item(ptr noundef %24, i32 noundef %25, ptr noundef %26, i32 noundef %27, i32 noundef 4, i32 noundef 0)
  %29 = load i32, ptr %8, align 4
  %30 = add i32 %29, 4
  store i32 %30, ptr %8, align 4
  store i32 0, ptr %10, align 4
  br label %31

31:                                               ; preds = %54, %4
  %32 = load i32, ptr %10, align 4
  %33 = load i8, ptr %9, align 1
  %34 = zext i8 %33 to i32
  %35 = icmp sle i32 %32, %34
  br i1 %35, label %36, label %57

36:                                               ; preds = %31
  %37 = load ptr, ptr %5, align 8
  %38 = load ptr, ptr %7, align 8
  %39 = load i32, ptr @hf_h264_bit_rate_value_minus1, align 4
  %40 = load ptr, ptr %6, align 8
  %41 = call i32 @dissect_h264_exp_golomb_code(ptr noundef %37, ptr noundef %38, i32 noundef %39, ptr noundef %40, ptr noundef %8, i32 noundef 0)
  %42 = load ptr, ptr %5, align 8
  %43 = load ptr, ptr %7, align 8
  %44 = load i32, ptr @hf_h264_cpb_size_value_minus1, align 4
  %45 = load ptr, ptr %6, align 8
  %46 = call i32 @dissect_h264_exp_golomb_code(ptr noundef %42, ptr noundef %43, i32 noundef %44, ptr noundef %45, ptr noundef %8, i32 noundef 0)
  %47 = load ptr, ptr %5, align 8
  %48 = load i32, ptr @hf_h264_cbr_flag, align 4
  %49 = load ptr, ptr %6, align 8
  %50 = load i32, ptr %8, align 4
  %51 = call ptr @proto_tree_add_bits_item(ptr noundef %47, i32 noundef %48, ptr noundef %49, i32 noundef %50, i32 noundef 1, i32 noundef 0)
  %52 = load i32, ptr %8, align 4
  %53 = add i32 %52, 1
  store i32 %53, ptr %8, align 4
  br label %54

54:                                               ; preds = %36
  %55 = load i32, ptr %10, align 4
  %56 = add i32 %55, 1
  store i32 %56, ptr %10, align 4
  br label %31, !llvm.loop !26

57:                                               ; preds = %31
  %58 = load ptr, ptr %5, align 8
  %59 = load i32, ptr @hf_h264_initial_cpb_removal_delay_length_minus1, align 4
  %60 = load ptr, ptr %6, align 8
  %61 = load i32, ptr %8, align 4
  %62 = call ptr @proto_tree_add_bits_item(ptr noundef %58, i32 noundef %59, ptr noundef %60, i32 noundef %61, i32 noundef 5, i32 noundef 0)
  %63 = load i32, ptr %8, align 4
  %64 = add i32 %63, 5
  store i32 %64, ptr %8, align 4
  %65 = load ptr, ptr %5, align 8
  %66 = load i32, ptr @hf_h264_cpb_removal_delay_length_minus1, align 4
  %67 = load ptr, ptr %6, align 8
  %68 = load i32, ptr %8, align 4
  %69 = call ptr @proto_tree_add_bits_item(ptr noundef %65, i32 noundef %66, ptr noundef %67, i32 noundef %68, i32 noundef 5, i32 noundef 0)
  %70 = load i32, ptr %8, align 4
  %71 = add i32 %70, 5
  store i32 %71, ptr %8, align 4
  %72 = load ptr, ptr %5, align 8
  %73 = load i32, ptr @hf_h264_dpb_output_delay_length_minus11, align 4
  %74 = load ptr, ptr %6, align 8
  %75 = load i32, ptr %8, align 4
  %76 = call ptr @proto_tree_add_bits_item(ptr noundef %72, i32 noundef %73, ptr noundef %74, i32 noundef %75, i32 noundef 5, i32 noundef 0)
  %77 = load i32, ptr %8, align 4
  %78 = add i32 %77, 5
  store i32 %78, ptr %8, align 4
  %79 = load ptr, ptr %5, align 8
  %80 = load i32, ptr @hf_h264_time_offset_length, align 4
  %81 = load ptr, ptr %6, align 8
  %82 = load i32, ptr %8, align 4
  %83 = call ptr @proto_tree_add_bits_item(ptr noundef %79, i32 noundef %80, ptr noundef %81, i32 noundef %82, i32 noundef 5, i32 noundef 0)
  %84 = load i32, ptr %8, align 4
  %85 = add i32 %84, 5
  store i32 %85, ptr %8, align 4
  %86 = load i32, ptr %8, align 4
  call void @llvm.lifetime.end.p0(i64 4, ptr %10) #7
  call void @llvm.lifetime.end.p0(i64 1, ptr %9) #7
  ret i32 %86
}