; Function Attrs: null_pointer_is_valid sspstrong uwtable
define internal fastcc noundef i32 @dissect_h264_hrd_parameters(ptr noundef %0, ptr noundef %1, ptr noundef readonly captures(none) %2, i32 noundef %3) unnamed_addr #0 {
  %5 = alloca i32, align 4
  store i32 %3, ptr %5, align 4
  %6 = load i32, ptr @hf_h264_cpb_cnt_minus1, align 4
  %7 = call fastcc i32 @dissect_h264_exp_golomb_code(ptr noundef %0, ptr noundef %2, i32 noundef %6, ptr noundef %1, ptr noundef nonnull %5, i32 noundef 0)
  %8 = load i32, ptr @hf_h264_bit_rate_scale, align 4
  %9 = load i32, ptr %5, align 4
  %10 = tail call ptr @proto_tree_add_bits_item(ptr noundef %0, i32 noundef %8, ptr noundef %1, i32 noundef %9, i32 noundef 4, i32 noundef 0)
  %11 = add i32 %9, 4
  %12 = load i32, ptr @hf_h264_cpb_size_scale, align 4
  %13 = tail call ptr @proto_tree_add_bits_item(ptr noundef %0, i32 noundef %12, ptr noundef %1, i32 noundef %11, i32 noundef 4, i32 noundef 0)
  %14 = add i32 %9, 8
  store i32 %14, ptr %5, align 4
  %15 = and i32 %7, 255
  br label %16

16:                                               ; preds = %4, %16
  %.025 = phi i32 [ 0, %4 ], [ %25, %16 ]
  %17 = load i32, ptr @hf_h264_bit_rate_value_minus1, align 4
  %18 = call fastcc i32 @dissect_h264_exp_golomb_code(ptr noundef %0, ptr noundef %2, i32 noundef %17, ptr noundef %1, ptr noundef nonnull %5, i32 noundef 0)
  %19 = load i32, ptr @hf_h264_cpb_size_value_minus1, align 4
  %20 = call fastcc i32 @dissect_h264_exp_golomb_code(ptr noundef %0, ptr noundef %2, i32 noundef %19, ptr noundef %1, ptr noundef nonnull %5, i32 noundef 0)
  %21 = load i32, ptr @hf_h264_cbr_flag, align 4
  %22 = load i32, ptr %5, align 4
  %23 = tail call ptr @proto_tree_add_bits_item(ptr noundef %0, i32 noundef %21, ptr noundef %1, i32 noundef %22, i32 noundef 1, i32 noundef 0)
  %24 = add i32 %22, 1
  store i32 %24, ptr %5, align 4
  %25 = add nuw nsw i32 %.025, 1
  %exitcond.not = icmp eq i32 %.025, %15
  br i1 %exitcond.not, label %26, label %16, !llvm.loop !29

26:                                               ; preds = %16
  %27 = load i32, ptr @hf_h264_initial_cpb_removal_delay_length_minus1, align 4
  %28 = tail call ptr @proto_tree_add_bits_item(ptr noundef %0, i32 noundef %27, ptr noundef %1, i32 noundef %24, i32 noundef 5, i32 noundef 0)
  %29 = add i32 %22, 6
  %30 = load i32, ptr @hf_h264_cpb_removal_delay_length_minus1, align 4
  %31 = tail call ptr @proto_tree_add_bits_item(ptr noundef %0, i32 noundef %30, ptr noundef %1, i32 noundef %29, i32 noundef 5, i32 noundef 0)
  %32 = add i32 %22, 11
  %33 = load i32, ptr @hf_h264_dpb_output_delay_length_minus11, align 4
  %34 = tail call ptr @proto_tree_add_bits_item(ptr noundef %0, i32 noundef %33, ptr noundef %1, i32 noundef %32, i32 noundef 5, i32 noundef 0)
  %35 = add i32 %22, 16
  %36 = load i32, ptr @hf_h264_time_offset_length, align 4
  %37 = tail call ptr @proto_tree_add_bits_item(ptr noundef %0, i32 noundef %36, ptr noundef %1, i32 noundef %35, i32 noundef 5, i32 noundef 0)
  %38 = add i32 %22, 21
  ret i32 %38
}